; Function Attrs: mustprogress nofree norecurse nosync nounwind willreturn memory(readwrite, inaccessiblemem: none) uwtable
define void @_ZN7openvdb5v11_06points12AttributeSet21removeAttributeUnsafeEm(ptr noalias nocapture writeonly sret(%"class.std::shared_ptr.18") align 8 %agg.result, ptr nocapture noundef nonnull readonly align 8 dereferenceable(40) %this, i64 noundef %pos) local_unnamed_addr #11 align 2 {
entry:
  %mAttrs = getelementptr inbounds i8, ptr %this, i64 16
  %_M_finish.i = getelementptr inbounds i8, ptr %this, i64 24
  %0 = load ptr, ptr %_M_finish.i, align 8
  %1 = load ptr, ptr %mAttrs, align 8
  %sub.ptr.lhs.cast.i = ptrtoint ptr %0 to i64
  %sub.ptr.rhs.cast.i = ptrtoint ptr %1 to i64
  %sub.ptr.sub.i = sub i64 %sub.ptr.lhs.cast.i, %sub.ptr.rhs.cast.i
  %sub.ptr.div.i = ashr exact i64 %sub.ptr.sub.i, 4
  %cmp.not = icmp ugt i64 %sub.ptr.div.i, %pos
  br i1 %cmp.not, label %if.end, label %if.then

if.then:                                          ; preds = %entry
  tail call void @llvm.memset.p0.i64(ptr noundef nonnull align 8 dereferenceable(16) %agg.result, i8 0, i64 16, i1 false)
  br label %return

if.end:                                           ; preds = %entry
  %add.ptr.i = getelementptr inbounds %"class.std::shared_ptr.18", ptr %1, i64 %pos
  %_M_refcount3.i.i = getelementptr inbounds i8, ptr %add.ptr.i, i64 8
  %2 = load <2 x ptr>, ptr %add.ptr.i, align 8
  store ptr null, ptr %add.ptr.i, align 8
  store ptr null, ptr %_M_refcount3.i.i, align 8
  store <2 x ptr> %2, ptr %agg.result, align 8
  br label %return

return:                                           ; preds = %if.end, %if.then
  ret void
}